target datalayout = "e-m:e-p270:32:32-p271:32:32-p272:64:64-i64:64-i128:128-f80:128-n8:16:32:64-S128"
target triple = "x86_64-pc-linux-gnu"

%struct.PJconsts = type <{ ptr, ptr, ptr, ptr, ptr, ptr, ptr, ptr, ptr, ptr, ptr, ptr, i32, [4 x i8], ptr, ptr, ptr, ptr, ptr, ptr, ptr, ptr, double, double, double, double, double, double, double, double, double, double, double, double, double, double, double, double, double, double, double, double, double, double, i32, i32, i32, i32, i32, i32, i32, i32, i32, i32, i32, [4 x i8], ptr, ptr, ptr, ptr, ptr, ptr, double, double, double, double, double, double, double, double, double, double, double, i32, [4 x i8], [7 x double], i32, [4 x i8], ptr, ptr, double, double, i32, [4 x i8], %"class.std::shared_ptr", i8, [7 x i8], double, i8, [7 x i8], %"class.std::__cxx11::basic_string", %"class.std::__cxx11::basic_string", %"class.std::__cxx11::basic_string", i8, [7 x i8], %"class.std::vector", i32, [4 x i8], %"class.std::vector.3", i32, i8, i8, i8, i8 }>
%"class.std::shared_ptr" = type { %"class.std::__shared_ptr" }
%"class.std::__shared_ptr" = type { ptr, %"class.std::__shared_count" }
%"class.std::__shared_count" = type { ptr }
%"class.std::__cxx11::basic_string" = type { %"struct.std::__cxx11::basic_string<char>::_Alloc_hider", i64, %union.anon }
%"struct.std::__cxx11::basic_string<char>::_Alloc_hider" = type { ptr }
%union.anon = type { i64, [8 x i8] }
%"class.std::vector" = type { %"struct.std::_Vector_base" }
%"struct.std::_Vector_base" = type { %"struct.std::_Vector_base<osgeo::proj::operation::GridDescription, std::allocator<osgeo::proj::operation::GridDescription>>::_Vector_impl" }
%"struct.std::_Vector_base<osgeo::proj::operation::GridDescription, std::allocator<osgeo::proj::operation::GridDescription>>::_Vector_impl" = type { %"struct.std::_Vector_base<osgeo::proj::operation::GridDescription, std::allocator<osgeo::proj::operation::GridDescription>>::_Vector_impl_data" }
%"struct.std::_Vector_base<osgeo::proj::operation::GridDescription, std::allocator<osgeo::proj::operation::GridDescription>>::_Vector_impl_data" = type { ptr, ptr, ptr }
%"class.std::vector.3" = type { %"struct.std::_Vector_base.4" }
%"struct.std::_Vector_base.4" = type { %"struct.std::_Vector_base<PJCoordOperation, std::allocator<PJCoordOperation>>::_Vector_impl" }
%"struct.std::_Vector_base<PJCoordOperation, std::allocator<PJCoordOperation>>::_Vector_impl" = type { %"struct.std::_Vector_base<PJCoordOperation, std::allocator<PJCoordOperation>>::_Vector_impl_data" }
%"struct.std::_Vector_base<PJCoordOperation, std::allocator<PJCoordOperation>>::_Vector_impl_data" = type { ptr, ptr, ptr }
%"struct.(anonymous namespace)::pj_opaque" = type { double, double, double, double }
%struct.PJ_LP = type { double, double }
%struct.PJ_XY = type { double, double }

; Function Attrs: mustprogress uwtable
define internal { double, double } @_ZL14eck3_s_forward5PJ_LPP8PJconsts(double %0, double %1, ptr noundef %2) #0 {
  %4 = alloca %struct.PJ_XY, align 8
  %5 = alloca %struct.PJ_LP, align 8
  %6 = alloca ptr, align 8
  %7 = alloca ptr, align 8
  %8 = getelementptr inbounds { double, double }, ptr %5, i32 0, i32 0
  store double %0, ptr %8, align 8
  %9 = getelementptr inbounds { double, double }, ptr %5, i32 0, i32 1
  store double %1, ptr %9, align 8
  store ptr %2, ptr %6, align 8
  call void @llvm.memset.p0.i64(ptr align 8 %4, i8 0, i64 16, i1 false)
  %10 = load ptr, ptr %6, align 8
  %11 = getelementptr inbounds %struct.PJconsts, ptr %10, i32 0, i32 11
  %12 = load ptr, ptr %11, align 8
  store ptr %12, ptr %7, align 8
  %13 = load ptr, ptr %7, align 8
  %14 = getelementptr inbounds %"struct.(anonymous namespace)::pj_opaque", ptr %13, i32 0, i32 1
  %15 = load double, ptr %14, align 8
  %16 = getelementptr inbounds %struct.PJ_LP, ptr %5, i32 0, i32 1
  %17 = load double, ptr %16, align 8
  %18 = fmul double %15, %17
  %19 = getelementptr inbounds %struct.PJ_XY, ptr %4, i32 0, i32 1
  store double %18, ptr %19, align 8
  %20 = load ptr, ptr %7, align 8
  %21 = getelementptr inbounds %"struct.(anonymous namespace)::pj_opaque", ptr %20, i32 0, i32 0
  %22 = load double, ptr %21, align 8
  %23 = getelementptr inbounds %struct.PJ_LP, ptr %5, i32 0, i32 0
  %24 = load double, ptr %23, align 8
  %25 = fmul double %22, %24
  %26 = load ptr, ptr %7, align 8
  %27 = getelementptr inbounds %"struct.(anonymous namespace)::pj_opaque", ptr %26, i32 0, i32 2
  %28 = load double, ptr %27, align 8
  %29 = load ptr, ptr %7, align 8
  %30 = getelementptr inbounds %"struct.(anonymous namespace)::pj_opaque", ptr %29, i32 0, i32 3
  %31 = load double, ptr %30, align 8
  %32 = getelementptr inbounds %struct.PJ_LP, ptr %5, i32 0, i32 1
  %33 = load double, ptr %32, align 8
  %34 = fmul double %31, %33
  %35 = getelementptr inbounds %struct.PJ_LP, ptr %5, i32 0, i32 1
  %36 = load double, ptr %35, align 8
  %37 = fneg double %34
  %38 = call double @llvm.fmuladd.f64(double %37, double %36, double 1.000000e+00)
  %39 = call noundef double @_Z5asqrtd(double noundef %38)
  %40 = fadd double %28, %39
  %41 = fmul double %25, %40
  %42 = getelementptr inbounds %struct.PJ_XY, ptr %4, i32 0, i32 0
  store double %41, ptr %42, align 8
  %43 = load { double, double }, ptr %4, align 8
  ret { double, double } %43
}