; Function Attrs: mustprogress uwtable
define internal { double, double } @_ZL14eck3_s_forward5PJ_LPP8PJconsts(double %0, double %1, ptr nocapture noundef readonly %2) #0 {
  %4 = getelementptr inbounds i8, ptr %2, i64 88
  %5 = load ptr, ptr %4, align 8
  %6 = getelementptr inbounds i8, ptr %5, i64 8
  %7 = load double, ptr %6, align 8
  %8 = fmul double %7, %1
  %9 = load double, ptr %5, align 8
  %10 = fmul double %9, %0
  %11 = getelementptr inbounds i8, ptr %5, i64 16
  %12 = load double, ptr %11, align 8
  %13 = getelementptr inbounds i8, ptr %5, i64 24
  %14 = load double, ptr %13, align 8
  %15 = fneg double %14
  %16 = fmul double %15, %1
  %17 = tail call double @llvm.fmuladd.f64(double %16, double %1, double 1.000000e+00)
  %18 = tail call noundef double @_Z5asqrtd(double noundef %17)
  %19 = fadd double %12, %18
  %20 = fmul double %10, %19
  %.fca.0.insert = insertvalue { double, double } poison, double %20, 0
  %.fca.1.insert = insertvalue { double, double } %.fca.0.insert, double %8, 1
  ret { double, double } %.fca.1.insert
}